; Function Attrs: mustprogress uwtable
define noundef zeroext i1 @_ZN29MLPoliciesStandAloneFunctions37isPrimitiveModalityCompatibleWithMeshEP9MeshModelN3vcg20GLMeshAttributesInfo18PRIMITIVE_MODALITYE(ptr noundef nonnull %0, i32 noundef %1) local_unnamed_addr #9 align 2 {
  %3 = getelementptr inbounds i8, ptr %0, i64 264
  %4 = load i32, ptr %3, align 8
  %5 = icmp sgt i32 %4, 0
  %6 = getelementptr inbounds i8, ptr %0, i64 584
  %7 = load i32, ptr %6, align 8
  %8 = icmp sgt i32 %7, 0
  %9 = getelementptr inbounds i8, ptr %0, i64 296
  %10 = load i32, ptr %9, align 8
  %11 = icmp sgt i32 %10, 0
  %12 = tail call noundef i32 @_ZNK9MeshModel8dataMaskEv(ptr noundef nonnull align 8 dereferenceable(1288) %0)
  %13 = tail call noundef zeroext i1 @_ZN29MLPoliciesStandAloneFunctions41isPrimitiveModalityCompatibleWithMeshInfoEbbbiN3vcg20GLMeshAttributesInfo18PRIMITIVE_MODALITYE(i1 noundef zeroext %5, i1 noundef zeroext %8, i1 noundef zeroext %11, i32 noundef %12, i32 noundef %1)
  ret i1 %13
}